; Function Attrs: nounwind uwtable
define ptr @l_Lean_PrettyPrinter_Formatter_withAntiquotSuffixSplice_formatter___rarg(ptr noundef %0, ptr noundef %1, ptr noundef %2, ptr noundef %3, ptr noundef %4, ptr noundef %5, ptr noundef %6) #0 {
  %8 = tail call ptr @l_Lean_Syntax_MonadTraverser_getCur___at_Lean_PrettyPrinter_Formatter_visitArgs___spec__1___rarg(ptr noundef %3, ptr poison, ptr poison, ptr noundef %6)
  %9 = getelementptr inbounds nuw i8, ptr %8, i64 8
  %10 = load ptr, ptr %9, align 8, !tbaa !4
  %11 = ptrtoint ptr %10 to i64
  %12 = and i64 %11, 1
  %.not = icmp eq i64 %12, 0
  br i1 %.not, label %13, label %lean_inc.exit31

13:                                               ; preds = %7
  %.val.i = load i32, ptr %10, align 4, !tbaa !8
  %14 = icmp sgt i32 %.val.i, 0
  br i1 %14, label %15, label %17, !prof !11

15:                                               ; preds = %13
  %16 = add nuw i32 %.val.i, 1
  store i32 %16, ptr %10, align 4, !tbaa !8
  br label %lean_inc.exit31

17:                                               ; preds = %13
  %.not.i38 = icmp eq i32 %.val.i, 0
  br i1 %.not.i38, label %lean_inc.exit31, label %18

18:                                               ; preds = %17
  tail call void @lean_inc_ref_cold(ptr noundef nonnull %10) #6
  br label %lean_inc.exit31

lean_inc.exit31:                                  ; preds = %18, %17, %15, %7
  %19 = getelementptr inbounds nuw i8, ptr %8, i64 16
  %20 = load ptr, ptr %19, align 8, !tbaa !4
  %21 = ptrtoint ptr %20 to i64
  %22 = and i64 %21, 1
  %.not42 = icmp eq i64 %22, 0
  br i1 %.not42, label %23, label %lean_inc.exit

23:                                               ; preds = %lean_inc.exit31
  %.val.i39 = load i32, ptr %20, align 4, !tbaa !8
  %24 = icmp sgt i32 %.val.i39, 0
  br i1 %24, label %25, label %27, !prof !11

25:                                               ; preds = %23
  %26 = add nuw i32 %.val.i39, 1
  store i32 %26, ptr %20, align 4, !tbaa !8
  br label %lean_inc.exit

27:                                               ; preds = %23
  %.not.i40 = icmp eq i32 %.val.i39, 0
  br i1 %.not.i40, label %lean_inc.exit, label %28

28:                                               ; preds = %27
  tail call void @lean_inc_ref_cold(ptr noundef nonnull %20) #6
  br label %lean_inc.exit

lean_inc.exit:                                    ; preds = %28, %27, %25, %lean_inc.exit31
  %29 = ptrtoint ptr %8 to i64
  %30 = and i64 %29, 1
  %.not43 = icmp eq i64 %30, 0
  br i1 %.not43, label %31, label %lean_dec.exit33

31:                                               ; preds = %lean_inc.exit
  %32 = load i32, ptr %8, align 4, !tbaa !8
  %33 = icmp sgt i32 %32, 1
  br i1 %33, label %34, label %36, !prof !11

34:                                               ; preds = %31
  %35 = add nsw i32 %32, -1
  store i32 %35, ptr %8, align 4, !tbaa !8
  br label %lean_dec.exit33

36:                                               ; preds = %31
  %.not.i = icmp eq i32 %32, 0
  br i1 %.not.i, label %lean_dec.exit33, label %37

37:                                               ; preds = %36
  tail call void @lean_dec_ref_cold(ptr noundef nonnull %8) #6
  br label %lean_dec.exit33

lean_dec.exit33:                                  ; preds = %37, %36, %34, %lean_inc.exit
  %38 = tail call zeroext i8 @l_Lean_Syntax_isAntiquotSuffixSplice(ptr noundef %10) #6
  br i1 %.not, label %39, label %lean_dec.exit32

39:                                               ; preds = %lean_dec.exit33
  %40 = load i32, ptr %10, align 4, !tbaa !8
  %41 = icmp sgt i32 %40, 1
  br i1 %41, label %42, label %44, !prof !11

42:                                               ; preds = %39
  %43 = add nsw i32 %40, -1
  store i32 %43, ptr %10, align 4, !tbaa !8
  br label %lean_dec.exit32

44:                                               ; preds = %39
  %.not.i34 = icmp eq i32 %40, 0
  br i1 %.not.i34, label %lean_dec.exit32, label %45

45:                                               ; preds = %44
  tail call void @lean_dec_ref_cold(ptr noundef nonnull %10) #6
  br label %lean_dec.exit32

lean_dec.exit32:                                  ; preds = %45, %44, %42, %lean_dec.exit33
  %46 = icmp eq i8 %38, 0
  br i1 %46, label %47, label %58

47:                                               ; preds = %lean_dec.exit32
  %48 = ptrtoint ptr %1 to i64
  %49 = and i64 %48, 1
  %.not44 = icmp eq i64 %49, 0
  br i1 %.not44, label %50, label %lean_dec.exit

50:                                               ; preds = %47
  %51 = load i32, ptr %1, align 4, !tbaa !8
  %52 = icmp sgt i32 %51, 1
  br i1 %52, label %53, label %55, !prof !11

53:                                               ; preds = %50
  %54 = add nsw i32 %51, -1
  store i32 %54, ptr %1, align 4, !tbaa !8
  br label %lean_dec.exit

55:                                               ; preds = %50
  %.not.i36 = icmp eq i32 %51, 0
  br i1 %.not.i36, label %lean_dec.exit, label %56

56:                                               ; preds = %55
  tail call void @lean_dec_ref_cold(ptr noundef nonnull %1) #6
  br label %lean_dec.exit

lean_dec.exit:                                    ; preds = %56, %55, %53, %47
  %57 = tail call ptr @lean_apply_5(ptr noundef %0, ptr noundef %2, ptr noundef %3, ptr noundef %4, ptr noundef %5, ptr noundef %20) #6
  br label %69

58:                                               ; preds = %lean_dec.exit32
  tail call void @lean_inc_heartbeat() #6
  %59 = tail call noalias ptr @mi_malloc_small(i64 noundef 40) #6
  %60 = icmp eq ptr %59, null
  br i1 %60, label %61, label %lean_alloc_closure.exit

61:                                               ; preds = %58
  tail call void @lean_internal_panic_out_of_memory() #7
  unreachable

lean_alloc_closure.exit:                          ; preds = %58
  %62 = getelementptr inbounds nuw i8, ptr %59, i64 4
  store i32 1, ptr %59, align 4, !tbaa !8
  store i32 -184549336, ptr %62, align 4
  %63 = getelementptr inbounds nuw i8, ptr %59, i64 8
  store ptr @l_Lean_PrettyPrinter_Formatter_withAntiquotSuffixSplice_formatter___rarg___lambda__1, ptr %63, align 8, !tbaa !4
  %64 = getelementptr inbounds nuw i8, ptr %59, i64 16
  store i16 7, ptr %64, align 8, !tbaa !15
  %65 = getelementptr inbounds nuw i8, ptr %59, i64 18
  store i16 2, ptr %65, align 2, !tbaa !15
  %66 = getelementptr inbounds nuw i8, ptr %59, i64 24
  store ptr %1, ptr %66, align 8, !tbaa !4
  %67 = getelementptr inbounds nuw i8, ptr %59, i64 32
  store ptr %0, ptr %67, align 8, !tbaa !4
  %68 = tail call ptr @l_Lean_PrettyPrinter_Formatter_visitArgs(ptr noundef nonnull %59, ptr noundef %2, ptr noundef %3, ptr noundef %4, ptr noundef %5, ptr noundef %20)
  br label %69

69:                                               ; preds = %lean_alloc_closure.exit, %lean_dec.exit
  %.0 = phi ptr [ %57, %lean_dec.exit ], [ %68, %lean_alloc_closure.exit ]
  ret ptr %.0
}